EXPORTS
	?IsThumbnailManagerAPISupported@CCameraUiConfigManager@@QBEHXZ @ 1 NONAME ; int CCameraUiConfigManager::IsThumbnailManagerAPISupported(void) const
	?CaptureToneDelay@CCameraUiConfigManager@@QBEHXZ @ 2 NONAME ; int CCameraUiConfigManager::CaptureToneDelay(void) const
	?IsQwerty2ndCamera@CCameraUiConfigManager@@QBEHXZ @ 3 NONAME ; int CCameraUiConfigManager::IsQwerty2ndCamera(void) const
	?SupportedPrimaryCameraAutoFocusKeyL@CCameraUiConfigManager@@QAEXAAV?$RArray@H@@@Z @ 4 NONAME ; void CCameraUiConfigManager::SupportedPrimaryCameraAutoFocusKeyL(class RArray<int> &)
	?SupportedEVSettingsL@CCameraUiConfigManager@@QAEXAAV?$RArray@H@@@Z @ 5 NONAME ; void CCameraUiConfigManager::SupportedEVSettingsL(class RArray<int> &)
	?IsISOSupported@CCameraUiConfigManager@@QBEHXZ @ 6 NONAME ; int CCameraUiConfigManager::IsISOSupported(void) const
	?SupportedMaxExtendedZoomStepsL@CCameraUiConfigManager@@QAEXAAV?$RArray@H@@@Z @ 7 NONAME ; void CCameraUiConfigManager::SupportedMaxExtendedZoomStepsL(class RArray<int> &)
	?IsKeyLockWatcherSupported@CCameraUiConfigManager@@QBEHXZ @ 8 NONAME ; int CCameraUiConfigManager::IsKeyLockWatcherSupported(void) const
	?IsContinuosAutofocusSupported@CCameraUiConfigManager@@QBEHXZ @ 9 NONAME ; int CCameraUiConfigManager::IsContinuosAutofocusSupported(void) const
	?SupportedMaxZoomStepsL@CCameraUiConfigManager@@QAEXAAV?$RArray@H@@@Z @ 10 NONAME ; void CCameraUiConfigManager::SupportedMaxZoomStepsL(class RArray<int> &)
	?SupportedFlashModeSettingsL@CCameraUiConfigManager@@QAEXAAV?$RArray@H@@@Z @ 11 NONAME ; void CCameraUiConfigManager::SupportedFlashModeSettingsL(class RArray<int> &)
	?SupportedSceneModesAndSettingsL@CCameraUiConfigManager@@QAEXAAV?$RArray@UTSceneSettings@@@@H@Z @ 12 NONAME ; void CCameraUiConfigManager::SupportedSceneModesAndSettingsL(class RArray<struct TSceneSettings> &, int)
	?IsXenonFlashSupported@CCameraUiConfigManager@@QBEHXZ @ 13 NONAME ; int CCameraUiConfigManager::IsXenonFlashSupported(void) const
	?IsVideoLightSupported@CCameraUiConfigManager@@QBEHXZ @ 14 NONAME ; int CCameraUiConfigManager::IsVideoLightSupported(void) const
	?SupportedColorToneSettingsL@CCameraUiConfigManager@@QAEXAAV?$RArray@H@@@Z @ 15 NONAME ; void CCameraUiConfigManager::SupportedColorToneSettingsL(class RArray<int> &)
	?SupportedPrimaryCameraZoomOutKeysL@CCameraUiConfigManager@@QAEXAAV?$RArray@H@@@Z @ 16 NONAME ; void CCameraUiConfigManager::SupportedPrimaryCameraZoomOutKeysL(class RArray<int> &)
	?IsExtendedLightSensitivitySupported@CCameraUiConfigManager@@QBEHXZ @ 17 NONAME ; int CCameraUiConfigManager::IsExtendedLightSensitivitySupported(void) const
	?IsFlashModeSupported@CCameraUiConfigManager@@QBEHXZ @ 18 NONAME ; int CCameraUiConfigManager::IsFlashModeSupported(void) const
	?SupportedSharpnessSettingsL@CCameraUiConfigManager@@QAEXAAV?$RArray@H@@@Z @ 19 NONAME ; void CCameraUiConfigManager::SupportedSharpnessSettingsL(class RArray<int> &)
	?SupportedSecondaryCameraAutoFocusKeyL@CCameraUiConfigManager@@QAEXAAV?$RArray@H@@@Z @ 20 NONAME ; void CCameraUiConfigManager::SupportedSecondaryCameraAutoFocusKeyL(class RArray<int> &)
	?IsAutofocusSetInHyperfocalAtStartup@CCameraUiConfigManager@@QBEHXZ @ 21 NONAME ; int CCameraUiConfigManager::IsAutofocusSetInHyperfocalAtStartup(void) const
	?NewLC@CCameraUiConfigManager@@SAPAV1@XZ @ 22 NONAME ; class CCameraUiConfigManager * CCameraUiConfigManager::NewLC(void)
	?NewL@CCameraUiConfigManager@@SAPAV1@XZ @ 23 NONAME ; class CCameraUiConfigManager * CCameraUiConfigManager::NewL(void)
	?IsSharpnessFeatureSupported@CCameraUiConfigManager@@QBEHXZ @ 24 NONAME ; int CCameraUiConfigManager::IsSharpnessFeatureSupported(void) const
	?SupportedWhiteBalanceSettingsL@CCameraUiConfigManager@@QAEXAAV?$RArray@H@@@Z @ 25 NONAME ; void CCameraUiConfigManager::SupportedWhiteBalanceSettingsL(class RArray<int> &)
	?SupportedPrimaryCameraZoomInKeysL@CCameraUiConfigManager@@QAEXAAV?$RArray@H@@@Z @ 26 NONAME ; void CCameraUiConfigManager::SupportedPrimaryCameraZoomInKeysL(class RArray<int> &)
	?IsSecondaryCameraSupported@CCameraUiConfigManager@@QBEHXZ @ 27 NONAME ; int CCameraUiConfigManager::IsSecondaryCameraSupported(void) const
	?IsBurstModeSupported@CCameraUiConfigManager@@QBEHXZ @ 28 NONAME ; int CCameraUiConfigManager::IsBurstModeSupported(void) const
	?BurstFileSizeEstimateFactor@CCameraUiConfigManager@@QBEHXZ @ 29 NONAME ; int CCameraUiConfigManager::BurstFileSizeEstimateFactor(void) const
	?IsFaceTrackingSupported@CCameraUiConfigManager@@QBEHXZ @ 30 NONAME ; int CCameraUiConfigManager::IsFaceTrackingSupported(void) const
	?IsCaptureToneDelaySupported@CCameraUiConfigManager@@QBEHXZ @ 31 NONAME ; int CCameraUiConfigManager::IsCaptureToneDelaySupported(void) const
	?IsOpticalJoyStickSupported@CCameraUiConfigManager@@QBEHXZ @ 32 NONAME ; int CCameraUiConfigManager::IsOpticalJoyStickSupported(void) const
	?IsUIOrientationOverrideSupported@CCameraUiConfigManager@@QBEHXZ @ 33 NONAME ; int CCameraUiConfigManager::IsUIOrientationOverrideSupported(void) const
	?SupportedSecondaryCameraZoomInKeysL@CCameraUiConfigManager@@QAEXAAV?$RArray@H@@@Z @ 34 NONAME ; void CCameraUiConfigManager::SupportedSecondaryCameraZoomInKeysL(class RArray<int> &)
	?IsBrightnessSupported@CCameraUiConfigManager@@QBEHXZ @ 35 NONAME ; int CCameraUiConfigManager::IsBrightnessSupported(void) const
	?SupportedContrastRangeL@CCameraUiConfigManager@@QAEXAAV?$RArray@H@@@Z @ 36 NONAME ; void CCameraUiConfigManager::SupportedContrastRangeL(class RArray<int> &)
	?IsColorToneFeatureSupported@CCameraUiConfigManager@@QBEHXZ @ 37 NONAME ; int CCameraUiConfigManager::IsColorToneFeatureSupported(void) const
	?SupportedZoomDelaysL@CCameraUiConfigManager@@QAEXAAV?$RArray@H@@@Z @ 38 NONAME ; void CCameraUiConfigManager::SupportedZoomDelaysL(class RArray<int> &)
	?IsContrastSupported@CCameraUiConfigManager@@QBEHXZ @ 39 NONAME ; int CCameraUiConfigManager::IsContrastSupported(void) const
	?IsPublishZoomStateSupported@CCameraUiConfigManager@@QBEHXZ @ 40 NONAME ; int CCameraUiConfigManager::IsPublishZoomStateSupported(void) const
	?SupportedPrimaryCameraCaptureKeyL@CCameraUiConfigManager@@QAEXAAV?$RArray@H@@@Z @ 41 NONAME ; void CCameraUiConfigManager::SupportedPrimaryCameraCaptureKeyL(class RArray<int> &)
	?SupportedLAFZoomBarL@CCameraUiConfigManager@@QAEXAAV?$RArray@H@@@Z @ 42 NONAME ; void CCameraUiConfigManager::SupportedLAFZoomBarL(class RArray<int> &)
	?IsExtendedDigitalZoomSupported@CCameraUiConfigManager@@QBEHXZ @ 43 NONAME ; int CCameraUiConfigManager::IsExtendedDigitalZoomSupported(void) const
	?IsLensCoverSupported@CCameraUiConfigManager@@QBEHXZ @ 44 NONAME ; int CCameraUiConfigManager::IsLensCoverSupported(void) const
	?RequiredRamMemoryFocusGained@CCameraUiConfigManager@@QBEHXZ @ 45 NONAME ; int CCameraUiConfigManager::RequiredRamMemoryFocusGained(void) const
	?CriticalLevelRamMemory@CCameraUiConfigManager@@QBEHXZ @ 46 NONAME ; int CCameraUiConfigManager::CriticalLevelRamMemory(void) const
	?SupportedBrightnessRangeL@CCameraUiConfigManager@@QAEXAAV?$RArray@H@@@Z @ 47 NONAME ; void CCameraUiConfigManager::SupportedBrightnessRangeL(class RArray<int> &)
	?SupportedSecondaryCameraCaptureKeyL@CCameraUiConfigManager@@QAEXAAV?$RArray@H@@@Z @ 48 NONAME ; void CCameraUiConfigManager::SupportedSecondaryCameraCaptureKeyL(class RArray<int> &)
	?IsAutoFocusSupported@CCameraUiConfigManager@@QBEHXZ @ 49 NONAME ; int CCameraUiConfigManager::IsAutoFocusSupported(void) const
	?IsOrientationSensorSupported@CCameraUiConfigManager@@QBEHXZ @ 50 NONAME ; int CCameraUiConfigManager::IsOrientationSensorSupported(void) const
	?IsPhotosSupported@CCameraUiConfigManager@@QBEHXZ @ 51 NONAME ; int CCameraUiConfigManager::IsPhotosSupported(void) const
	?RequiredRamMemory@CCameraUiConfigManager@@QBEHXZ @ 52 NONAME ; int CCameraUiConfigManager::RequiredRamMemory(void) const
	?IsLocationSupported@CCameraUiConfigManager@@QBEHXZ @ 53 NONAME ; int CCameraUiConfigManager::IsLocationSupported(void) const
	?IsOneClickUploadSupported@CCameraUiConfigManager@@QBEHXZ @ 54 NONAME ; int CCameraUiConfigManager::IsOneClickUploadSupported(void) const
	?IsVideoStabilizationSupported@CCameraUiConfigManager@@QBEHXZ @ 55 NONAME ; int CCameraUiConfigManager::IsVideoStabilizationSupported(void) const
	?IsEVSupported@CCameraUiConfigManager@@QBEHXZ @ 56 NONAME ; int CCameraUiConfigManager::IsEVSupported(void) const
	?IsWhiteBalanceFeatureSupported@CCameraUiConfigManager@@QBEHXZ @ 57 NONAME ; int CCameraUiConfigManager::IsWhiteBalanceFeatureSupported(void) const
	?SupportedSecondaryCameraZoomOutKeysL@CCameraUiConfigManager@@QAEXAAV?$RArray@H@@@Z @ 58 NONAME ; void CCameraUiConfigManager::SupportedSecondaryCameraZoomOutKeysL(class RArray<int> &)
	?IsDSAViewFinderSupported@CCameraUiConfigManager@@QBEHH@Z @ 59 NONAME ; int CCameraUiConfigManager::IsDSAViewFinderSupported(int) const
	?CriticalLevelRamMemoryFocusGained@CCameraUiConfigManager@@QBEHXZ @ 60 NONAME ; int CCameraUiConfigManager::CriticalLevelRamMemoryFocusGained(void) const

