EXPORTS
	_ZN22CCameraUiConfigManager20SupportedEVSettingsLER6RArrayIiE @ 1 NONAME
	_ZN22CCameraUiConfigManager20SupportedLAFZoomBarLER6RArrayIiE @ 2 NONAME
	_ZN22CCameraUiConfigManager20SupportedZoomDelaysLER6RArrayIiE @ 3 NONAME
	_ZN22CCameraUiConfigManager22SupportedMaxZoomStepsLER6RArrayIiE @ 4 NONAME
	_ZN22CCameraUiConfigManager23SupportedContrastRangeLER6RArrayIiE @ 5 NONAME
	_ZN22CCameraUiConfigManager25SupportedBrightnessRangeLER6RArrayIiE @ 6 NONAME
	_ZN22CCameraUiConfigManager27SupportedColorToneSettingsLER6RArrayIiE @ 7 NONAME
	_ZN22CCameraUiConfigManager27SupportedFlashModeSettingsLER6RArrayIiE @ 8 NONAME
	_ZN22CCameraUiConfigManager27SupportedSharpnessSettingsLER6RArrayIiE @ 9 NONAME
	_ZN22CCameraUiConfigManager30SupportedMaxExtendedZoomStepsLER6RArrayIiE @ 10 NONAME
	_ZN22CCameraUiConfigManager30SupportedWhiteBalanceSettingsLER6RArrayIiE @ 11 NONAME
	_ZN22CCameraUiConfigManager31SupportedSceneModesAndSettingsLER6RArrayI14TSceneSettingsEi @ 12 NONAME
	_ZN22CCameraUiConfigManager33SupportedPrimaryCameraCaptureKeyLER6RArrayIiE @ 13 NONAME
	_ZN22CCameraUiConfigManager33SupportedPrimaryCameraZoomInKeysLER6RArrayIiE @ 14 NONAME
	_ZN22CCameraUiConfigManager34SupportedPrimaryCameraZoomOutKeysLER6RArrayIiE @ 15 NONAME
	_ZN22CCameraUiConfigManager35SupportedPrimaryCameraAutoFocusKeyLER6RArrayIiE @ 16 NONAME
	_ZN22CCameraUiConfigManager35SupportedSecondaryCameraCaptureKeyLER6RArrayIiE @ 17 NONAME
	_ZN22CCameraUiConfigManager35SupportedSecondaryCameraZoomInKeysLER6RArrayIiE @ 18 NONAME
	_ZN22CCameraUiConfigManager36SupportedSecondaryCameraZoomOutKeysLER6RArrayIiE @ 19 NONAME
	_ZN22CCameraUiConfigManager37SupportedSecondaryCameraAutoFocusKeyLER6RArrayIiE @ 20 NONAME
	_ZN22CCameraUiConfigManager4NewLEv @ 21 NONAME
	_ZN22CCameraUiConfigManager5NewLCEv @ 22 NONAME
	_ZNK22CCameraUiConfigManager13IsEVSupportedEv @ 23 NONAME
	_ZNK22CCameraUiConfigManager14IsISOSupportedEv @ 24 NONAME
	_ZNK22CCameraUiConfigManager16CaptureToneDelayEv @ 25 NONAME
	_ZNK22CCameraUiConfigManager17IsPhotosSupportedEv @ 26 NONAME
	_ZNK22CCameraUiConfigManager17IsQwerty2ndCameraEv @ 27 NONAME
	_ZNK22CCameraUiConfigManager17RequiredRamMemoryEv @ 28 NONAME
	_ZNK22CCameraUiConfigManager19IsContrastSupportedEv @ 29 NONAME
	_ZNK22CCameraUiConfigManager19IsLocationSupportedEv @ 30 NONAME
	_ZNK22CCameraUiConfigManager20IsAutoFocusSupportedEv @ 31 NONAME
	_ZNK22CCameraUiConfigManager20IsBurstModeSupportedEv @ 32 NONAME
	_ZNK22CCameraUiConfigManager20IsFlashModeSupportedEv @ 33 NONAME
	_ZNK22CCameraUiConfigManager20IsLensCoverSupportedEv @ 34 NONAME
	_ZNK22CCameraUiConfigManager21IsBrightnessSupportedEv @ 35 NONAME
	_ZNK22CCameraUiConfigManager21IsVideoLightSupportedEv @ 36 NONAME
	_ZNK22CCameraUiConfigManager21IsXenonFlashSupportedEv @ 37 NONAME
	_ZNK22CCameraUiConfigManager22CriticalLevelRamMemoryEv @ 38 NONAME
	_ZNK22CCameraUiConfigManager23IsFaceTrackingSupportedEv @ 39 NONAME
	_ZNK22CCameraUiConfigManager24IsDSAViewFinderSupportedEi @ 40 NONAME
	_ZNK22CCameraUiConfigManager25IsKeyLockWatcherSupportedEv @ 41 NONAME
	_ZNK22CCameraUiConfigManager25IsOneClickUploadSupportedEv @ 42 NONAME
	_ZNK22CCameraUiConfigManager26IsOpticalJoyStickSupportedEv @ 43 NONAME
	_ZNK22CCameraUiConfigManager26IsSecondaryCameraSupportedEv @ 44 NONAME
	_ZNK22CCameraUiConfigManager27BurstFileSizeEstimateFactorEv @ 45 NONAME
	_ZNK22CCameraUiConfigManager27IsCaptureToneDelaySupportedEv @ 46 NONAME
	_ZNK22CCameraUiConfigManager27IsColorToneFeatureSupportedEv @ 47 NONAME
	_ZNK22CCameraUiConfigManager27IsPublishZoomStateSupportedEv @ 48 NONAME
	_ZNK22CCameraUiConfigManager27IsSharpnessFeatureSupportedEv @ 49 NONAME
	_ZNK22CCameraUiConfigManager28IsOrientationSensorSupportedEv @ 50 NONAME
	_ZNK22CCameraUiConfigManager28RequiredRamMemoryFocusGainedEv @ 51 NONAME
	_ZNK22CCameraUiConfigManager29IsContinuosAutofocusSupportedEv @ 52 NONAME
	_ZNK22CCameraUiConfigManager29IsVideoStabilizationSupportedEv @ 53 NONAME
	_ZNK22CCameraUiConfigManager30IsExtendedDigitalZoomSupportedEv @ 54 NONAME
	_ZNK22CCameraUiConfigManager30IsThumbnailManagerAPISupportedEv @ 55 NONAME
	_ZNK22CCameraUiConfigManager30IsWhiteBalanceFeatureSupportedEv @ 56 NONAME
	_ZNK22CCameraUiConfigManager32IsUIOrientationOverrideSupportedEv @ 57 NONAME
	_ZNK22CCameraUiConfigManager33CriticalLevelRamMemoryFocusGainedEv @ 58 NONAME
	_ZNK22CCameraUiConfigManager35IsAutofocusSetInHyperfocalAtStartupEv @ 59 NONAME
	_ZNK22CCameraUiConfigManager35IsExtendedLightSensitivitySupportedEv @ 60 NONAME
	_ZTI22CCameraUiConfigManager @ 61 NONAME
	_ZTI25CCameraUiConfigManagerImp @ 62 NONAME
	_ZTV22CCameraUiConfigManager @ 63 NONAME
	_ZTV25CCameraUiConfigManagerImp @ 64 NONAME
	_ZN22CCameraUiConfigManager21SupportedScreenModesLER6RArrayIiE @ 65 NONAME

