EXPORTS
	_ZN21ActivePalette2Factory22CreateActivePaletteUILE23TActivePalette2DrawMode @ 1 NONAME
	_ZN21ActivePalette2Factory25CreateHUIActivePaletteUILER7CHuiEnv @ 2 NONAME
	_ZN21TAP2GenericPluginIconC1Eii @ 3 NONAME
	_ZN21TAP2GenericPluginIconC2Eii @ 4 NONAME
	_ZN23TAP2GenericPluginParamsC1EiRK7TDesC16iiS2_ii @ 5 NONAME
	_ZN23TAP2GenericPluginParamsC2EiRK7TDesC16iiS2_ii @ 6 NONAME
	_ZN24CActivePalettePluginBase10ConstructLERKN27NActivePalettePluginFactory21TPluginCreationParamsERK6TDesC8i @ 7 NONAME
	_ZN24CActivePalettePluginBase14HandleMessageLEiRK6TDesC8i @ 8 NONAME
	_ZN24CActivePalettePluginBase15ProduceAniFrameEiiRKNS_20TPluginAnimationInfoERK10CFbsBitmapPS4_PPS3_S8_RiS9_ @ 9 NONAME
	_ZN24CActivePalettePluginBase16ReleaseAniFramesEi @ 10 NONAME
	_ZN24CActivePalettePluginBase17PrepareAniFramesLEiRNS_20TPluginAnimationInfoERKS0_RK10CFbsBitmapPS5_ @ 11 NONAME
	_ZN24CActivePalettePluginBase8ShutdownEv @ 12 NONAME
	_ZN24CActivePalettePluginBaseC2ERKN27NActivePalettePluginFactory21TPluginCreationParamsE @ 13 NONAME
	_ZN24CActivePalettePluginBaseD0Ev @ 14 NONAME
	_ZN24CActivePalettePluginBaseD1Ev @ 15 NONAME
	_ZN24CActivePalettePluginBaseD2Ev @ 16 NONAME
	_ZN26TActivePalette2ItemVisibleC1Eii @ 17 NONAME
	_ZN26TActivePalette2ItemVisibleC2Eii @ 18 NONAME
	_ZN27NActivePalettePluginFactory21TPluginCreationParamsC1ER28MActivePalettePluginObserverRK5TSize @ 19 NONAME
	_ZN27NActivePalettePluginFactory21TPluginCreationParamsC2ER28MActivePalettePluginObserverRK5TSize @ 20 NONAME
	_ZN29TActivePalette2NavigationKeysC1Eiii @ 21 NONAME
	_ZN29TActivePalette2NavigationKeysC1Ev @ 22 NONAME
	_ZN29TActivePalette2NavigationKeysC2Eiii @ 23 NONAME
	_ZN29TActivePalette2NavigationKeysC2Ev @ 24 NONAME
	_ZNK24TActivePalette2EventData11ServingItemEv @ 25 NONAME
	_ZNK24TActivePalette2EventData13ServingPluginEv @ 26 NONAME
	_ZNK24TActivePalette2EventData6ResultEv @ 27 NONAME
	_ZNK24TActivePalette2EventData7CurItemEv @ 28 NONAME
	_ZNK24TActivePalette2EventData8PrevItemEv @ 29 NONAME
	_ZNK26TActivePalette2ItemVisible6ItemIdEv @ 30 NONAME
	_ZNK26TActivePalette2ItemVisible7VisibleEv @ 31 NONAME
	_ZNK27NActivePalettePluginFactory21TPluginCreationParams10DimensionsEv @ 32 NONAME
	_ZNK27NActivePalettePluginFactory21TPluginCreationParams14PluginObserverEv @ 33 NONAME
	_ZTI16CAnimationHelper @ 34 NONAME ; #<TI>#
	_ZTI17CAP2GenericPlugin @ 35 NONAME ; #<TI>#
	_ZTI19CActivePalette2Item @ 36 NONAME ; #<TI>#
	_ZTI20CActivePalette2BasicUI @ 37 NONAME ; #<TI>#
	_ZTI20CActivePalette2Model @ 38 NONAME ; #<TI>#
	_ZTI21CActivePalette2Styler @ 39 NONAME ; #<TI>#
	_ZTI22CActivePalette2Tooltip @ 40 NONAME ; #<TI>#
	_ZTI24CActivePalettePluginBase @ 41 NONAME ; #<TI>#
	_ZTI27CActivePalette2OpaqueStyler @ 42 NONAME ; #<TI>#
	_ZTI33CActivePalette2CheckerboardStyler @ 43 NONAME ; #<TI>#
	_ZTI36CActivePalette2SemiTransparentStyler @ 44 NONAME ; #<TI>#
	_ZTV16CAnimationHelper @ 45 NONAME ; #<VT>#
	_ZTV17CAP2GenericPlugin @ 46 NONAME ; #<VT>#
	_ZTV19CActivePalette2Item @ 47 NONAME ; #<VT>#
	_ZTV20CActivePalette2BasicUI @ 48 NONAME ; #<VT>#
	_ZTV20CActivePalette2Model @ 49 NONAME ; #<VT>#
	_ZTV21CActivePalette2Styler @ 50 NONAME ; #<VT>#
	_ZTV22CActivePalette2Tooltip @ 51 NONAME ; #<VT>#
	_ZTV24CActivePalettePluginBase @ 52 NONAME ; #<VT>#
	_ZTV27CActivePalette2OpaqueStyler @ 53 NONAME ; #<VT>#
	_ZTV33CActivePalette2CheckerboardStyler @ 54 NONAME ; #<VT>#
	_ZTV36CActivePalette2SemiTransparentStyler @ 55 NONAME ; #<VT>#
	_ZN21ActivePalette2Factory25CreateGuiActivePaletteUILEP4MGui @ 56 NONAME
	_ZTI21CActivePalette2HUI @ 57 NONAME ; #<TI>#
	_ZTV21CActivePalette2HUI @ 58 NONAME ; #<VT>#
	_ZTI28CActivePalette2Configuration @ 59 NONAME ; #<TI>#
	_ZTI28CActivePalette2TooltipFading @ 60 NONAME ; #<TI>#
	_ZTI42CActivePalette2SemiTransparentFadingStyler @ 61 NONAME ; #<TI>#
	_ZTV28CActivePalette2Configuration @ 62 NONAME ; #<VT>#
	_ZTV28CActivePalette2TooltipFading @ 63 NONAME ; #<VT>#
	_ZTV42CActivePalette2SemiTransparentFadingStyler @ 64 NONAME ; #<VT>#

